; Function Attrs: mustprogress nounwind uwtable
define hidden void @_ZN20ParCompactionManager26push_shadow_region_mt_safeEm(i64 noundef %0) local_unnamed_addr #0 align 2 {
  %2 = load ptr, ptr @_ZN20ParCompactionManager22_shadow_region_monitorE, align 8
  %.not.i.i = icmp eq ptr %2, null
  br i1 %.not.i.i, label %_ZN13MonitorLockerC2EP7MonitorN5Mutex18SafepointCheckFlagE.exit, label %3

3:                                                ; preds = %1
  tail call void @_ZN5Mutex28lock_without_safepoint_checkEv(ptr noundef nonnull align 8 dereferenceable(104) %2) #12
  br label %_ZN13MonitorLockerC2EP7MonitorN5Mutex18SafepointCheckFlagE.exit

_ZN13MonitorLockerC2EP7MonitorN5Mutex18SafepointCheckFlagE.exit: ; preds = %1, %3
  %4 = load ptr, ptr @_ZN20ParCompactionManager20_shadow_region_arrayE, align 8
  %5 = load i32, ptr %4, align 8
  %6 = getelementptr inbounds i8, ptr %4, i64 4
  %7 = load i32, ptr %6, align 4
  %8 = icmp eq i32 %5, %7
  br i1 %8, label %9, label %_ZN13MonitorLockerD2Ev.exit

9:                                                ; preds = %_ZN13MonitorLockerC2EP7MonitorN5Mutex18SafepointCheckFlagE.exit
  %10 = add nsw i32 %5, 1
  %11 = icmp sgt i32 %5, -1
  %12 = xor i32 %5, -2147483648
  %13 = and i32 %12, %10
  %14 = icmp eq i32 %13, 0
  %15 = and i1 %11, %14
  %16 = tail call range(i32 0, 33) i32 @llvm.ctlz.i32(i32 %10, i1 true)
  %17 = sub nuw nsw i32 32, %16
  %18 = shl nuw i32 1, %17
  %.0.i.i.i.i.i = select i1 %15, i32 %10, i32 %18
  tail call void @_ZN26GrowableArrayWithAllocatorIm13GrowableArrayImEE9expand_toEi(ptr noundef nonnull align 8 dereferenceable(16) %4, i32 noundef %.0.i.i.i.i.i)
  %.pre.i.i = load i32, ptr %4, align 8
  br label %_ZN13MonitorLockerD2Ev.exit

_ZN13MonitorLockerD2Ev.exit:                      ; preds = %_ZN13MonitorLockerC2EP7MonitorN5Mutex18SafepointCheckFlagE.exit, %9
  %19 = phi i32 [ %.pre.i.i, %9 ], [ %5, %_ZN13MonitorLockerC2EP7MonitorN5Mutex18SafepointCheckFlagE.exit ]
  %20 = add nsw i32 %19, 1
  store i32 %20, ptr %4, align 8
  %21 = getelementptr inbounds i8, ptr %4, i64 8
  %22 = load ptr, ptr %21, align 8
  %23 = sext i32 %19 to i64
  %24 = getelementptr inbounds i64, ptr %22, i64 %23
  store i64 %0, ptr %24, align 8
  tail call void @_ZN7Monitor6notifyEv(ptr noundef nonnull align 8 dereferenceable(104) %2) #12
  tail call void @_ZN5Mutex6unlockEv(ptr noundef nonnull align 8 dereferenceable(104) %2) #12
  ret void
}